target datalayout = "e-m:e-p270:32:32-p271:32:32-p272:64:64-i64:64-i128:128-f80:128-n8:16:32:64-S128"
target triple = "x86_64-pc-linux-gnu"

%class.anon = type { ptr, ptr, ptr, ptr }

; Function Attrs: inlinehint mustprogress sspstrong uwtable
define internal void @"_ZZN3tbb6detail2r117assertion_failureEPKciS3_S3_ENK3$_0clEv"(ptr noundef nonnull align 8 dereferenceable(32) %0) #10 align 2 {
  %2 = alloca ptr, align 8
  store ptr %0, ptr %2, align 8, !tbaa !15
  %3 = load ptr, ptr %2, align 8
  %4 = getelementptr inbounds nuw %class.anon, ptr %3, i32 0, i32 0
  %5 = load ptr, ptr %4, align 8, !tbaa !43
  %6 = load ptr, ptr %5, align 8, !tbaa !3
  %7 = getelementptr inbounds nuw %class.anon, ptr %3, i32 0, i32 1
  %8 = load ptr, ptr %7, align 8, !tbaa !45
  %9 = load i32, ptr %8, align 4, !tbaa !8
  %10 = getelementptr inbounds nuw %class.anon, ptr %3, i32 0, i32 2
  %11 = load ptr, ptr %10, align 8, !tbaa !46
  %12 = load ptr, ptr %11, align 8, !tbaa !3
  %13 = getelementptr inbounds nuw %class.anon, ptr %3, i32 0, i32 3
  %14 = load ptr, ptr %13, align 8, !tbaa !47
  %15 = load ptr, ptr %14, align 8, !tbaa !3
  call void @_ZN3tbb6detail2r1L22assertion_failure_implEPKciS3_S3_(ptr noundef %6, i32 noundef %9, ptr noundef %12, ptr noundef %15)
  ret void
}