; Function Attrs: cold inlinehint mustprogress nofree noreturn nounwind sspstrong uwtable
define internal fastcc void @"_ZZN3tbb6detail2r117assertion_failureEPKciS3_S3_ENK3$_0clEv"(ptr noundef nonnull readonly align 8 captures(none) dereferenceable(32) %0) unnamed_addr #12 align 2 {
  %2 = load ptr, ptr %0, align 8, !tbaa !27
  %3 = load ptr, ptr %2, align 8, !tbaa !3
  %4 = getelementptr inbounds nuw i8, ptr %0, i64 8
  %5 = load ptr, ptr %4, align 8, !tbaa !29
  %6 = load i32, ptr %5, align 4, !tbaa !8
  %7 = getelementptr inbounds nuw i8, ptr %0, i64 16
  %8 = load ptr, ptr %7, align 8, !tbaa !30
  %9 = load ptr, ptr %8, align 8, !tbaa !3
  %10 = getelementptr inbounds nuw i8, ptr %0, i64 24
  %11 = load ptr, ptr %10, align 8, !tbaa !31
  %12 = load ptr, ptr %11, align 8, !tbaa !3
  tail call fastcc void @_ZN3tbb6detail2r1L22assertion_failure_implEPKciS3_S3_(ptr noundef %3, i32 noundef %6, ptr noundef %9, ptr noundef %12)
  unreachable
}